target datalayout = "e-m:e-p270:32:32-p271:32:32-p272:64:64-i64:64-i128:128-f80:128-n8:16:32:64-S128"
target triple = "x86_64-pc-linux-gnu"

%struct.H5_user_cb_state_t = type { %struct.H5E_user_cb_state_t }
%struct.H5E_user_cb_state_t = type { i32, %union.anon, ptr }
%union.anon = type { ptr }
%struct.H5P_iter_plist_ud_t = type { ptr, ptr, ptr, ptr, ptr, i32 }

@H5P_init_g = external global i8, align 1
@H5_libterm_g = external global i8, align 1
@.str.7 = private unnamed_addr constant [100 x i8] c"generated/home/dtcxzyw/WorkSpace/Projects/compilers/llvm-opt-benchmark/bench/hdf5/hdf5/src/H5Pint.c\00", align 1
@H5E_PLIST_g = external global i64, align 8
@H5E_CANTINSERT_g = external global i64, align 8
@__func__.H5P__iterate_plist_cb = private unnamed_addr constant [22 x i8] c"H5P__iterate_plist_cb\00", align 1
@.str.96 = private unnamed_addr constant [44 x i8] c"can't insert property into 'seen' skip list\00", align 1

; Function Attrs: nounwind uwtable
define internal i32 @H5P__iterate_plist_cb(ptr noundef %0, ptr noundef %1, ptr noundef %2) #0 {
  %4 = alloca ptr, align 8
  %5 = alloca ptr, align 8
  %6 = alloca ptr, align 8
  %7 = alloca ptr, align 8
  %8 = alloca ptr, align 8
  %9 = alloca ptr, align 8
  %10 = alloca i32, align 4
  %11 = alloca i8, align 1
  %12 = alloca %struct.H5_user_cb_state_t, align 8
  store ptr %0, ptr %4, align 8, !tbaa !40
  store ptr %1, ptr %5, align 8, !tbaa !40
  store ptr %2, ptr %6, align 8, !tbaa !40
  call void @llvm.lifetime.start.p0(i64 8, ptr %7) #8
  %13 = load ptr, ptr %4, align 8, !tbaa !40
  store ptr %13, ptr %7, align 8, !tbaa !68
  call void @llvm.lifetime.start.p0(i64 8, ptr %8) #8
  %14 = load ptr, ptr %5, align 8, !tbaa !40
  store ptr %14, ptr %8, align 8, !tbaa !39
  call void @llvm.lifetime.start.p0(i64 8, ptr %9) #8
  %15 = load ptr, ptr %6, align 8, !tbaa !40
  store ptr %15, ptr %9, align 8, !tbaa !40
  call void @llvm.lifetime.start.p0(i64 4, ptr %10) #8
  store i32 0, ptr %10, align 4, !tbaa !3
  call void @llvm.lifetime.start.p0(i64 1, ptr %11) #8
  store i8 0, ptr %11, align 1, !tbaa !7
  %16 = load i8, ptr @H5P_init_g, align 1, !tbaa !7, !range !9, !noundef !10
  %17 = trunc i8 %16 to i1
  br i1 %17, label %22, label %18

18:                                               ; preds = %3
  %19 = load i8, ptr @H5_libterm_g, align 1, !tbaa !7, !range !9, !noundef !10
  %20 = trunc i8 %19 to i1
  %21 = xor i1 %20, true
  br label %22

22:                                               ; preds = %18, %3
  %23 = phi i1 [ true, %3 ], [ %21, %18 ]
  %24 = xor i1 %23, true
  %25 = xor i1 %24, true
  %26 = zext i1 %25 to i32
  %27 = sext i32 %26 to i64
  %28 = call i64 @llvm.expect.i64(i64 %27, i64 1)
  %29 = icmp ne i64 %28, 0
  br i1 %29, label %30, label %99

30:                                               ; preds = %22
  %31 = load ptr, ptr %9, align 8, !tbaa !40
  %32 = getelementptr inbounds nuw %struct.H5P_iter_plist_ud_t, ptr %31, i32 0, i32 4
  %33 = load ptr, ptr %32, align 8, !tbaa !123
  %34 = load i32, ptr %33, align 4, !tbaa !3
  %35 = load ptr, ptr %9, align 8, !tbaa !40
  %36 = getelementptr inbounds nuw %struct.H5P_iter_plist_ud_t, ptr %35, i32 0, i32 5
  %37 = load i32, ptr %36, align 8, !tbaa !124
  %38 = icmp sge i32 %34, %37
  br i1 %38, label %39, label %65

39:                                               ; preds = %30
  call void @llvm.lifetime.start.p0(i64 24, ptr %12) #8
  %40 = call i32 @H5_user_cb_prepare(ptr noundef %12)
  %41 = icmp slt i32 %40, 0
  br i1 %41, label %42, label %43

42:                                               ; preds = %39
  store i32 -1, ptr %10, align 4, !tbaa !3
  br label %56

43:                                               ; preds = %39
  %44 = load ptr, ptr %9, align 8, !tbaa !40
  %45 = getelementptr inbounds nuw %struct.H5P_iter_plist_ud_t, ptr %44, i32 0, i32 0
  %46 = load ptr, ptr %45, align 8, !tbaa !120
  %47 = load ptr, ptr %7, align 8, !tbaa !68
  %48 = load ptr, ptr %9, align 8, !tbaa !40
  %49 = getelementptr inbounds nuw %struct.H5P_iter_plist_ud_t, ptr %48, i32 0, i32 1
  %50 = load ptr, ptr %49, align 8, !tbaa !121
  %51 = call i32 %46(ptr noundef %47, ptr noundef %50)
  store i32 %51, ptr %10, align 4, !tbaa !3
  %52 = call i32 @H5_user_cb_restore(ptr noundef %12)
  %53 = icmp slt i32 %52, 0
  br i1 %53, label %54, label %55

54:                                               ; preds = %43
  store i32 -1, ptr %10, align 4, !tbaa !3
  br label %55

55:                                               ; preds = %54, %43
  br label %56

56:                                               ; preds = %55, %42
  call void @llvm.lifetime.end.p0(i64 24, ptr %12) #8
  %57 = load i32, ptr %10, align 4, !tbaa !3
  %58 = icmp ne i32 %57, 0
  br i1 %58, label %59, label %64

59:                                               ; preds = %56
  br label %60

60:                                               ; preds = %59
  %61 = load i32, ptr %10, align 4, !tbaa !3
  store i32 %61, ptr %10, align 4, !tbaa !3
  br label %98

62:                                               ; No predecessors!
  br label %63

63:                                               ; preds = %62
  br label %64

64:                                               ; preds = %63, %56
  br label %65

65:                                               ; preds = %64, %30
  %66 = load ptr, ptr %9, align 8, !tbaa !40
  %67 = getelementptr inbounds nuw %struct.H5P_iter_plist_ud_t, ptr %66, i32 0, i32 4
  %68 = load ptr, ptr %67, align 8, !tbaa !123
  %69 = load i32, ptr %68, align 4, !tbaa !3
  %70 = add nsw i32 %69, 1
  store i32 %70, ptr %68, align 4, !tbaa !3
  %71 = load ptr, ptr %9, align 8, !tbaa !40
  %72 = getelementptr inbounds nuw %struct.H5P_iter_plist_ud_t, ptr %71, i32 0, i32 3
  %73 = load ptr, ptr %72, align 8, !tbaa !122
  %74 = load ptr, ptr %8, align 8, !tbaa !39
  %75 = load ptr, ptr %8, align 8, !tbaa !39
  %76 = call i32 @H5SL_insert(ptr noundef %73, ptr noundef %74, ptr noundef %75)
  %77 = icmp slt i32 %76, 0
  br i1 %77, label %78, label %97

78:                                               ; preds = %65
  br label %79

79:                                               ; preds = %78
  br label %80

80:                                               ; preds = %79
  br label %81

81:                                               ; preds = %80
  %82 = load i64, ptr @H5E_PLIST_g, align 8, !tbaa !11
  %83 = load i64, ptr @H5E_CANTINSERT_g, align 8, !tbaa !11
  %84 = call i32 (ptr, ptr, i32, i64, i64, ptr, ...) @H5E_printf_stack(ptr noundef @.str.7, ptr noundef @__func__.H5P__iterate_plist_cb, i32 noundef 4288, i64 noundef %82, i64 noundef %83, ptr noundef @.str.96)
  br label %85

85:                                               ; preds = %81
  br label %86

86:                                               ; preds = %85
  store i8 1, ptr %11, align 1, !tbaa !7
  %87 = load i8, ptr %11, align 1, !tbaa !7, !range !9, !noundef !10
  %88 = trunc i8 %87 to i1
  %89 = zext i1 %88 to i8
  store i8 %89, ptr %11, align 1, !tbaa !7
  br label %90

90:                                               ; preds = %86
  br label %91

91:                                               ; preds = %90
  br label %92

92:                                               ; preds = %91
  store i32 -1, ptr %10, align 4, !tbaa !3
  br label %98

93:                                               ; No predecessors!
  br label %94

94:                                               ; preds = %93
  br label %95

95:                                               ; preds = %94
  br label %96

96:                                               ; preds = %95
  br label %97

97:                                               ; preds = %96, %65
  br label %98

98:                                               ; preds = %97, %92, %60
  br label %99

99:                                               ; preds = %98, %22
  %100 = load i32, ptr %10, align 4, !tbaa !3
  call void @llvm.lifetime.end.p0(i64 1, ptr %11) #8
  call void @llvm.lifetime.end.p0(i64 4, ptr %10) #8
  call void @llvm.lifetime.end.p0(i64 8, ptr %9) #8
  call void @llvm.lifetime.end.p0(i64 8, ptr %8) #8
  call void @llvm.lifetime.end.p0(i64 8, ptr %7) #8
  ret i32 %100
}